target datalayout = "e-m:e-p270:32:32-p271:32:32-p272:64:64-i64:64-i128:128-f80:128-n8:16:32:64-S128"
target triple = "x86_64-pc-linux-gnu"

%struct._DtBauhausWidget = type { %struct._GtkDrawingArea, i32, ptr, ptr, i32, [256 x i8], i32, ptr, i32, ptr, ptr, i32, ptr, i32, i32, i32, %struct._GtkBorder, %struct._GtkBorder, i32, %union.dt_bauhaus_data_t }
%struct._GtkDrawingArea = type { %struct._GtkWidget, ptr }
%struct._GtkWidget = type { %struct._GObject, ptr }
%struct._GObject = type { %struct._GTypeInstance, i32, ptr }
%struct._GTypeInstance = type { ptr }
%struct._GtkBorder = type { i16, i16, i16, i16 }
%union.dt_bauhaus_data_t = type { %struct.dt_bauhaus_slider_data_t }
%struct.dt_bauhaus_slider_data_t = type { float, float, float, float, float, float, float, float, float, float, i32, ptr, i32, ptr, i8, ptr, float, float, i8, i32, ptr }
%struct.dt_bauhaus_combobox_data_t = type { i32, i32, i32, i32, ptr, i32, ptr, i32, ptr }

@dt_bh_get_type.static_g_define_type_id = internal global i64 0, align 8

; Function Attrs: nounwind uwtable
define i64 @dt_bh_get_type() #0 {
  %1 = alloca i32, align 4
  %2 = alloca i64, align 8
  %3 = alloca ptr, align 8
  %4 = alloca i64, align 8
  %5 = alloca i64, align 8
  call void @llvm.lifetime.start.p0(i64 8, ptr %2) #13
  call void @llvm.lifetime.start.p0(i64 8, ptr %3) #13
  store ptr @dt_bh_get_type.static_g_define_type_id, ptr %3, align 8, !tbaa !6
  %6 = load ptr, ptr %3, align 8, !tbaa !6
  %7 = load atomic i64, ptr %6 seq_cst, align 8
  store i64 %7, ptr %2, align 8
  %8 = load i64, ptr %2, align 8, !tbaa !11
  store i64 %8, ptr %4, align 8, !tbaa !11
  call void @llvm.lifetime.end.p0(i64 8, ptr %3) #13
  call void @llvm.lifetime.end.p0(i64 8, ptr %2) #13
  %9 = load i64, ptr %4, align 8, !tbaa !11
  %10 = icmp ne i64 %9, 0
  br i1 %10, label %14, label %11

11:                                               ; preds = %0
  %12 = call i32 @g_once_init_enter(ptr noundef @dt_bh_get_type.static_g_define_type_id)
  %13 = icmp ne i32 %12, 0
  br label %14

14:                                               ; preds = %11, %0
  %15 = phi i1 [ false, %0 ], [ %13, %11 ]
  %16 = zext i1 %15 to i32
  store i32 %16, ptr %1, align 4, !tbaa !13
  %17 = load i32, ptr %1, align 4, !tbaa !13
  %18 = icmp ne i32 %17, 0
  br i1 %18, label %19, label %22

19:                                               ; preds = %14
  call void @llvm.lifetime.start.p0(i64 8, ptr %5) #13
  %20 = call i64 @dt_bh_get_type_once()
  store i64 %20, ptr %5, align 8, !tbaa !11
  %21 = load i64, ptr %5, align 8, !tbaa !11
  call void @g_once_init_leave(ptr noundef @dt_bh_get_type.static_g_define_type_id, i64 noundef %21)
  call void @llvm.lifetime.end.p0(i64 8, ptr %5) #13
  br label %22

22:                                               ; preds = %19, %14
  %23 = load i64, ptr @dt_bh_get_type.static_g_define_type_id, align 8, !tbaa !11
  ret i64 %23
}

; Function Attrs: inlinehint nounwind uwtable
define internal ptr @DT_BAUHAUS_WIDGET(ptr noundef %0) #4 {
  %2 = alloca ptr, align 8
  store ptr %0, ptr %2, align 8, !tbaa !32
  %3 = load ptr, ptr %2, align 8, !tbaa !32
  %4 = call i64 @dt_bh_get_type()
  %5 = call ptr @g_type_check_instance_cast(ptr noundef %3, i64 noundef %4)
  ret ptr %5
}

; Function Attrs: nounwind uwtable
define void @dt_bauhaus_widget_reset(ptr noundef %0) #0 {
  %2 = alloca ptr, align 8
  %3 = alloca ptr, align 8
  %4 = alloca ptr, align 8
  store ptr %0, ptr %2, align 8, !tbaa !15
  call void @llvm.lifetime.start.p0(i64 8, ptr %3) #13
  %5 = load ptr, ptr %2, align 8, !tbaa !15
  %6 = call ptr @DT_BAUHAUS_WIDGET(ptr noundef %5)
  store ptr %6, ptr %3, align 8, !tbaa !17
  %7 = load ptr, ptr %3, align 8, !tbaa !17
  %8 = getelementptr inbounds nuw %struct._DtBauhausWidget, ptr %7, i32 0, i32 1
  %9 = load i32, ptr %8, align 8, !tbaa !139
  %10 = icmp eq i32 %9, 1
  br i1 %10, label %11, label %33

11:                                               ; preds = %1
  call void @llvm.lifetime.start.p0(i64 8, ptr %4) #13
  %12 = load ptr, ptr %3, align 8, !tbaa !17
  %13 = getelementptr inbounds nuw %struct._DtBauhausWidget, ptr %12, i32 0, i32 19
  store ptr %13, ptr %4, align 8, !tbaa !140
  %14 = load ptr, ptr %4, align 8, !tbaa !140
  %15 = getelementptr inbounds nuw %struct.dt_bauhaus_slider_data_t, ptr %14, i32 0, i32 18
  %16 = load i8, ptr %15, align 8
  %17 = and i8 %16, -2
  %18 = or i8 %17, 0
  store i8 %18, ptr %15, align 8
  %19 = load ptr, ptr %4, align 8, !tbaa !140
  %20 = getelementptr inbounds nuw %struct.dt_bauhaus_slider_data_t, ptr %19, i32 0, i32 6
  %21 = load float, ptr %20, align 8, !tbaa !207
  %22 = load ptr, ptr %4, align 8, !tbaa !140
  %23 = getelementptr inbounds nuw %struct.dt_bauhaus_slider_data_t, ptr %22, i32 0, i32 4
  store float %21, ptr %23, align 8, !tbaa !148
  %24 = load ptr, ptr %4, align 8, !tbaa !140
  %25 = getelementptr inbounds nuw %struct.dt_bauhaus_slider_data_t, ptr %24, i32 0, i32 7
  %26 = load float, ptr %25, align 4, !tbaa !211
  %27 = load ptr, ptr %4, align 8, !tbaa !140
  %28 = getelementptr inbounds nuw %struct.dt_bauhaus_slider_data_t, ptr %27, i32 0, i32 5
  store float %26, ptr %28, align 4, !tbaa !147
  %29 = load ptr, ptr %2, align 8, !tbaa !15
  %30 = load ptr, ptr %4, align 8, !tbaa !140
  %31 = getelementptr inbounds nuw %struct.dt_bauhaus_slider_data_t, ptr %30, i32 0, i32 3
  %32 = load float, ptr %31, align 4, !tbaa !213
  call void @dt_bauhaus_slider_set(ptr noundef %29, float noundef %32)
  call void @llvm.lifetime.end.p0(i64 8, ptr %4) #13
  br label %40

33:                                               ; preds = %1
  %34 = load ptr, ptr %2, align 8, !tbaa !15
  %35 = load ptr, ptr %3, align 8, !tbaa !17
  %36 = getelementptr inbounds nuw %struct._DtBauhausWidget, ptr %35, i32 0, i32 19
  %37 = getelementptr inbounds nuw %struct.dt_bauhaus_combobox_data_t, ptr %36, i32 0, i32 1
  %38 = load i32, ptr %37, align 4, !tbaa !164
  %39 = call i32 @dt_bauhaus_combobox_set_from_value(ptr noundef %34, i32 noundef %38)
  br label %40

40:                                               ; preds = %33, %11
  call void @llvm.lifetime.end.p0(i64 8, ptr %3) #13
  ret void
}