; Function Attrs: nounwind uwtable
define void @dt_bauhaus_widget_reset(ptr noundef %0) local_unnamed_addr #0 {
  %2 = load atomic i64, ptr @dt_bh_get_type.static_g_define_type_id seq_cst, align 8
  %.not.i.i = icmp eq i64 %2, 0
  br i1 %.not.i.i, label %3, label %DT_BAUHAUS_WIDGET.exit

3:                                                ; preds = %1
  %4 = tail call i32 @g_once_init_enter(ptr noundef nonnull @dt_bh_get_type.static_g_define_type_id) #19
  %.not4.i.i = icmp eq i32 %4, 0
  br i1 %.not4.i.i, label %DT_BAUHAUS_WIDGET.exit, label %5

5:                                                ; preds = %3
  %6 = tail call fastcc i64 @dt_bh_get_type_once()
  tail call void @g_once_init_leave(ptr noundef nonnull @dt_bh_get_type.static_g_define_type_id, i64 noundef %6) #19
  br label %DT_BAUHAUS_WIDGET.exit

DT_BAUHAUS_WIDGET.exit:                           ; preds = %1, %3, %5
  %7 = load i64, ptr @dt_bh_get_type.static_g_define_type_id, align 8, !tbaa !6
  %8 = tail call ptr @g_type_check_instance_cast(ptr noundef %0, i64 noundef %7) #19
  %9 = getelementptr inbounds nuw i8, ptr %8, i64 40
  %10 = load i32, ptr %9, align 8, !tbaa !105
  %11 = icmp eq i32 %10, 1
  br i1 %11, label %12, label %24

12:                                               ; preds = %DT_BAUHAUS_WIDGET.exit
  %13 = getelementptr inbounds nuw i8, ptr %8, i64 504
  %14 = load i8, ptr %13, align 8
  %15 = and i8 %14, -2
  store i8 %15, ptr %13, align 8
  %16 = getelementptr inbounds nuw i8, ptr %8, i64 432
  %17 = load float, ptr %16, align 8, !tbaa !171
  %18 = getelementptr inbounds nuw i8, ptr %8, i64 424
  store float %17, ptr %18, align 8, !tbaa !121
  %19 = getelementptr inbounds nuw i8, ptr %8, i64 436
  %20 = load float, ptr %19, align 4, !tbaa !173
  %21 = getelementptr inbounds nuw i8, ptr %8, i64 428
  store float %20, ptr %21, align 4, !tbaa !120
  %22 = getelementptr inbounds nuw i8, ptr %8, i64 420
  %23 = load float, ptr %22, align 4, !tbaa !175
  tail call void @dt_bauhaus_slider_set(ptr noundef %0, float noundef %23)
  br label %28

24:                                               ; preds = %DT_BAUHAUS_WIDGET.exit
  %25 = getelementptr inbounds nuw i8, ptr %8, i64 412
  %26 = load i32, ptr %25, align 4, !tbaa !106
  %27 = tail call i32 @dt_bauhaus_combobox_set_from_value(ptr noundef %0, i32 noundef %26)
  br label %28

28:                                               ; preds = %24, %12
  ret void
}